; Function Attrs: nounwind uwtable
define noalias noundef ptr @Gia_ManSelectCuts(ptr noundef readonly captures(none) %0, i32 noundef %1, i32 noundef %2) local_unnamed_addr #0 {
  %4 = tail call noalias dereferenceable_or_null(16) ptr @malloc(i64 noundef 16) #28
  %5 = add i32 %1, -1
  %or.cond.i.i = icmp ult i32 %5, 7
  %spec.store.select.i.i = select i1 %or.cond.i.i, i32 8, i32 %1
  store i32 %spec.store.select.i.i, ptr %4, align 8, !tbaa !99
  %.not.i.i = icmp eq i32 %spec.store.select.i.i, 0
  br i1 %.not.i.i, label %Vec_WecStart.exit, label %6

6:                                                ; preds = %3
  %7 = sext i32 %spec.store.select.i.i to i64
  %8 = tail call noalias ptr @calloc(i64 noundef %7, i64 noundef 16) #29
  br label %Vec_WecStart.exit

Vec_WecStart.exit:                                ; preds = %3, %6
  %9 = phi ptr [ %8, %6 ], [ null, %3 ]
  %10 = getelementptr inbounds nuw i8, ptr %4, i64 4
  %11 = getelementptr inbounds nuw i8, ptr %4, i64 8
  store ptr %9, ptr %11, align 8, !tbaa !34
  store i32 %1, ptr %10, align 4, !tbaa !100
  %12 = tail call i64 @time(ptr noundef null) #26
  %13 = trunc i64 %12 to i32
  tail call void @srand(i32 noundef %13) #26
  %14 = icmp sgt i32 %1, 0
  br i1 %14, label %.preheader.lr.ph, label %._crit_edge

.preheader.lr.ph:                                 ; preds = %Vec_WecStart.exit
  %15 = getelementptr i8, ptr %0, i64 4
  %16 = getelementptr i8, ptr %0, i64 8
  %wide.trip.count = zext nneg i32 %1 to i64
  br label %.preheader

.preheader:                                       ; preds = %.preheader.lr.ph, %.loopexit
  %indvars.iv = phi i64 [ 0, %.preheader.lr.ph ], [ %indvars.iv.next, %.loopexit ]
  %17 = getelementptr inbounds nuw %struct.Vec_Int_t_, ptr %9, i64 %indvars.iv
  %18 = getelementptr inbounds nuw i8, ptr %17, i64 4
  br label %19

19:                                               ; preds = %.preheader, %Gia_StoSelectOneCut.exit
  %20 = tail call i32 @rand() #26
  %21 = tail call i32 @rand() #26
  %22 = shl i32 %21, 15
  %23 = or i32 %22, %20
  %.val9 = load i32, ptr %15, align 4, !tbaa !100
  %24 = srem i32 %23, %.val9
  %.val.i = load ptr, ptr %16, align 8, !tbaa !34
  %25 = sext i32 %24 to i64
  %26 = getelementptr %struct.Vec_Int_t_, ptr %.val.i, i64 %25, i32 2
  %.val24.i = load ptr, ptr %26, align 8, !tbaa !36
  %27 = icmp eq ptr %.val24.i, null
  br i1 %27, label %Gia_StoSelectOneCut.exit, label %28

28:                                               ; preds = %19
  store i32 0, ptr %18, align 4, !tbaa !89
  %29 = load i32, ptr %.val24.i, align 4, !tbaa !37
  %30 = icmp sgt i32 %29, 0
  br i1 %30, label %.lr.ph.preheader.i, label %Gia_StoSelectOneCut.exit

.lr.ph.preheader.i:                               ; preds = %28
  %31 = getelementptr inbounds nuw i8, ptr %.val24.i, i64 4
  br label %.lr.ph.i

.lr.ph.i:                                         ; preds = %67, %.lr.ph.preheader.i
  %.01928.i = phi ptr [ %71, %67 ], [ %31, %.lr.ph.preheader.i ]
  %.02127.i = phi i32 [ %68, %67 ], [ 0, %.lr.ph.preheader.i ]
  %32 = load i32, ptr %.01928.i, align 4, !tbaa !37
  %33 = icmp slt i32 %32, %2
  br i1 %33, label %67, label %.preheader.i

.preheader.i:                                     ; preds = %.lr.ph.i
  %.not29.i = icmp slt i32 %32, 0
  br i1 %.not29.i, label %.loopexit, label %.lr.ph31.i

.lr.ph31.i:                                       ; preds = %.preheader.i
  %.phi.trans.insert.i.i = getelementptr inbounds nuw i8, ptr %17, i64 8
  br label %34

34:                                               ; preds = %Vec_IntPush.exit.i, %.lr.ph31.i
  %indvars.iv.i = phi i64 [ 0, %.lr.ph31.i ], [ %indvars.iv.next.i, %Vec_IntPush.exit.i ]
  %35 = getelementptr inbounds nuw i32, ptr %.01928.i, i64 %indvars.iv.i
  %36 = load i32, ptr %35, align 4, !tbaa !37
  %37 = load i32, ptr %18, align 4, !tbaa !89
  %38 = load i32, ptr %17, align 8, !tbaa !90
  %39 = icmp eq i32 %37, %38
  br i1 %39, label %40, label %.Vec_IntGrow.exit10_crit_edge.i.i

.Vec_IntGrow.exit10_crit_edge.i.i:                ; preds = %34
  %.pre.i.i = load ptr, ptr %.phi.trans.insert.i.i, align 8, !tbaa !36
  br label %Vec_IntPush.exit.i

40:                                               ; preds = %34
  %41 = icmp slt i32 %37, 16
  br i1 %41, label %42, label %49

42:                                               ; preds = %40
  %43 = load ptr, ptr %.phi.trans.insert.i.i, align 8, !tbaa !36
  %.not9.i.i.i = icmp eq ptr %43, null
  br i1 %.not9.i.i.i, label %46, label %44

44:                                               ; preds = %42
  %45 = tail call dereferenceable_or_null(64) ptr @realloc(ptr noundef nonnull %43, i64 noundef 64) #27
  br label %Vec_IntGrow.exit.i.i

46:                                               ; preds = %42
  %47 = tail call noalias dereferenceable_or_null(64) ptr @malloc(i64 noundef 64) #28
  br label %Vec_IntGrow.exit.i.i

Vec_IntGrow.exit.i.i:                             ; preds = %46, %44
  %48 = phi ptr [ %45, %44 ], [ %47, %46 ]
  store ptr %48, ptr %.phi.trans.insert.i.i, align 8, !tbaa !36
  store i32 16, ptr %17, align 8, !tbaa !90
  br label %Vec_IntPush.exit.i

49:                                               ; preds = %40
  %50 = shl nuw nsw i32 %37, 1
  %51 = load ptr, ptr %.phi.trans.insert.i.i, align 8, !tbaa !36
  %.not9.i9.i.i = icmp eq ptr %51, null
  %52 = zext nneg i32 %50 to i64
  %53 = shl nuw nsw i64 %52, 2
  br i1 %.not9.i9.i.i, label %56, label %54

54:                                               ; preds = %49
  %55 = tail call ptr @realloc(ptr noundef nonnull %51, i64 noundef %53) #27
  br label %58

56:                                               ; preds = %49
  %57 = tail call noalias ptr @malloc(i64 noundef %53) #28
  br label %58

58:                                               ; preds = %56, %54
  %59 = phi ptr [ %55, %54 ], [ %57, %56 ]
  store ptr %59, ptr %.phi.trans.insert.i.i, align 8, !tbaa !36
  store i32 %50, ptr %17, align 8, !tbaa !90
  br label %Vec_IntPush.exit.i

Vec_IntPush.exit.i:                               ; preds = %58, %Vec_IntGrow.exit.i.i, %.Vec_IntGrow.exit10_crit_edge.i.i
  %60 = phi ptr [ %.pre.i.i, %.Vec_IntGrow.exit10_crit_edge.i.i ], [ %59, %58 ], [ %48, %Vec_IntGrow.exit.i.i ]
  %61 = load i32, ptr %18, align 4, !tbaa !89
  %62 = add nsw i32 %61, 1
  store i32 %62, ptr %18, align 4, !tbaa !89
  %63 = sext i32 %61 to i64
  %64 = getelementptr inbounds i32, ptr %60, i64 %63
  store i32 %36, ptr %64, align 4, !tbaa !37
  %indvars.iv.next.i = add nuw nsw i64 %indvars.iv.i, 1
  %65 = load i32, ptr %.01928.i, align 4, !tbaa !37
  %66 = sext i32 %65 to i64
  %.not.not.i = icmp slt i64 %indvars.iv.i, %66
  br i1 %.not.not.i, label %34, label %.loopexit, !llvm.loop !114

67:                                               ; preds = %.lr.ph.i
  %68 = add nuw nsw i32 %.02127.i, 1
  %69 = sext i32 %32 to i64
  %70 = getelementptr i32, ptr %.01928.i, i64 %69
  %71 = getelementptr i8, ptr %70, i64 8
  %exitcond.not.i = icmp eq i32 %68, %29
  br i1 %exitcond.not.i, label %Gia_StoSelectOneCut.exit, label %.lr.ph.i, !llvm.loop !115

Gia_StoSelectOneCut.exit:                         ; preds = %67, %19, %28
  br label %19, !llvm.loop !116

.loopexit:                                        ; preds = %Vec_IntPush.exit.i, %.preheader.i
  %indvars.iv.next = add nuw nsw i64 %indvars.iv, 1
  %exitcond.not = icmp eq i64 %indvars.iv.next, %wide.trip.count
  br i1 %exitcond.not, label %._crit_edge, label %.preheader, !llvm.loop !117

._crit_edge:                                      ; preds = %.loopexit, %Vec_WecStart.exit
  ret ptr %4
}